Certificate:
    Data:
        Version: 3 (0x2)
        Serial Number: 1 (0x1)
        Signature Algorithm: md5WithRSAEncryption
        Issuer: C=US, ST=California, L=San Francisco, O=httpd-test, CN=localhost
        Validity
            Not Before: Aug 11 20:52:30 2001 GMT
            Not After : Aug 11 20:52:30 2002 GMT
        Subject: C=US, ST=California, L=San Francisco, O=httpd-test, CN=localhost
        Subject Public Key Info:
            Public Key Algorithm: rsaEncryption
            RSA Public Key: (1024 bit)
                Modulus (1024 bit):
                    00:e8:af:55:80:3e:05:4b:3d:24:20:55:3f:d1:d6:
                    ec:01:0c:a4:2a:c7:50:5a:1b:97:64:9a:d1:4e:1e:
                    9e:23:a3:bf:5c:ec:ba:35:fc:1f:f7:6a:95:e2:f3:
                    2e:63:e3:0b:0d:40:77:3b:dc:7f:4c:ca:b5:c6:c1:
                    ff:5e:7c:f3:81:21:58:8a:ef:b5:20:90:9e:99:51:
                    0b:33:2e:c1:95:8d:85:e2:33:96:5a:4e:93:e2:8a:
                    50:50:ff:24:16:e2:5a:b8:86:45:83:81:ac:49:ad:
                    c0:0c:0b:44:b2:1d:71:7d:f2:9f:10:37:50:d4:05:
                    c7:eb:76:9f:e7:36:f6:76:6f
                Exponent: 65537 (0x10001)
        X509v3 extensions:
            X509v3 Basic Constraints: 
                CA:FALSE
            Netscape Comment: 
                OpenSSL Generated Certificate
            X509v3 Subject Key Identifier: 
                F3:B4:AA:A9:4C:0F:C4:C0:24:28:61:06:E8:9C:DE:D9:FA:EB:B1:96
            X509v3 Authority Key Identifier: 
                keyid:C4:4E:51:49:2F:AC:DA:C5:3D:D2:33:D5:8B:10:B8:D1:26:EE:20:9C
                DirName:/C=US/ST=California/L=San Francisco/O=httpd-test/CN=localhost
                serial:00

    Signature Algorithm: md5WithRSAEncryption
        ac:c2:7d:d4:49:82:d0:2b:4a:5e:5f:28:b9:b9:06:b4:07:87:
        7a:e9:17:e0:46:ff:6d:de:3d:89:29:d0:ad:f3:7e:e1:92:f7:
        d6:44:ae:33:48:06:b5:ca:0b:75:91:9e:f7:4c:00:54:e6:5a:
        67:19:13:8f:2f:63:a0:e3:c9:cc:ee:55:60:51:17:65:27:a6:
        3e:2c:e6:aa:fc:a7:45:d5:35:1b:ef:ae:01:66:41:a0:4e:08:
        59:3a:1e:53:6c:bc:9d:2d:40:f1:c3:71:7f:5f:e6:54:ca:e8:
        47:b2:0e:8a:df:5c:e4:55:da:b5:b2:6b:70:61:95:a8:e8:7e:
        df:66
-----BEGIN CERTIFICATE-----
MIIDKDCCApGgAwIBAgIBATANBgkqhkiG9w0BAQQFADBjMQswCQYDVQQGEwJVUzET
MBEGA1UECBMKQ2FsaWZvcm5pYTEWMBQGA1UEBxMNU2FuIEZyYW5jaXNjbzETMBEG
A1UEChMKaHR0cGQtdGVzdDESMBAGA1UEAxMJbG9jYWxob3N0MB4XDTAxMDgxMTIw
NTIzMFoXDTAyMDgxMTIwNTIzMFowYzELMAkGA1UEBhMCVVMxEzARBgNVBAgTCkNh
bGlmb3JuaWExFjAUBgNVBAcTDVNhbiBGcmFuY2lzY28xEzARBgNVBAoTCmh0dHBk
LXRlc3QxEjAQBgNVBAMTCWxvY2FsaG9zdDCBnzANBgkqhkiG9w0BAQEFAAOBjQAw
gYkCgYEA6K9VgD4FSz0kIFU/0dbsAQykKsdQWhuXZJrRTh6eI6O/XOy6Nfwf92qV
4vMuY+MLDUB3O9x/TMq1xsH/XnzzgSFYiu+1IJCemVELMy7BlY2F4jOWWk6T4opQ
UP8kFuJauIZFg4GsSa3ADAtEsh1xffKfEDdQ1AXH63af5zb2dm8CAwEAAaOB6zCB
6DAJBgNVHRMEAjAAMCwGCWCGSAGG+EIBDQQfFh1PcGVuU1NMIEdlbmVyYXRlZCBD
ZXJ0aWZpY2F0ZTAdBgNVHQ4EFgQU87SqqUwPxMAkKGEG6Jze2frrsZYwgY0GA1Ud
IwSBhTCBgoAUxE5RSS+s2sU90jPVixC40SbuIJyhZ6RlMGMxCzAJBgNVBAYTAlVT
MRMwEQYDVQQIEwpDYWxpZm9ybmlhMRYwFAYDVQQHEw1TYW4gRnJhbmNpc2NvMRMw
EQYDVQQKEwpodHRwZC10ZXN0MRIwEAYDVQQDEwlsb2NhbGhvc3SCAQAwDQYJKoZI
hvcNAQEEBQADgYEArMJ91EmC0CtKXl8oubkGtAeHeukX4Eb/bd49iSnQrfN+4ZL3
1kSuM0gGtcoLdZGe90wAVOZaZxkTjy9joOPJzO5VYFEXZSemPizmqvynRdU1G++u
AWZBoE4IWToeU2y8nS1A8cNxf1/mVMroR7IOit9c5FXatbJrcGGVqOh+32Y=
-----END CERTIFICATE-----
