Certificate:
    Data:
        Version: 3 (0x2)
        Serial Number: 2 (0x2)
        Signature Algorithm: md5WithRSAEncryption
        Issuer: C=US, ST=California, L=San Francisco, O=ASF, OU=httpd-test, CN=localhost
        Validity
            Not Before: Aug 13 02:05:09 2001 GMT
            Not After : Aug 13 02:05:09 2002 GMT
        Subject: C=US, ST=California, L=San Francisco, O=ASF, OU=httpd-test, CN=client_ok
        Subject Public Key Info:
            Public Key Algorithm: rsaEncryption
            RSA Public Key: (1024 bit)
                Modulus (1024 bit):
                    00:b8:a9:81:ff:66:b3:83:7e:96:5c:a6:64:2c:d5:
                    ec:1d:9f:ec:13:fc:da:d1:9b:b5:ac:42:f7:f8:62:
                    32:06:9c:3b:0d:df:ce:60:c3:5e:64:e9:23:2a:87:
                    35:e2:d6:76:8e:44:9c:24:1f:7c:20:0d:73:78:47:
                    ed:f7:9d:b9:91:71:73:7a:d3:f3:c7:eb:6a:e3:c2:
                    24:c5:3f:60:65:37:af:c8:3b:52:4c:23:47:58:17:
                    1d:a1:e2:33:4a:2e:32:96:d2:b1:46:11:b6:de:c9:
                    09:d2:5d:1b:61:8d:93:33:4f:e7:6c:ae:7f:45:05:
                    c3:a6:5f:53:7f:7f:60:59:d1
                Exponent: 65537 (0x10001)
        X509v3 extensions:
            X509v3 Basic Constraints: 
                CA:FALSE
            Netscape Comment: 
                OpenSSL Generated Certificate
            X509v3 Subject Key Identifier: 
                B3:87:C3:CB:B6:E3:DA:DB:45:DD:8F:7F:49:0E:72:65:C2:3F:83:15
            X509v3 Authority Key Identifier: 
                keyid:6A:8C:30:3A:B8:00:F3:23:19:5D:32:FB:75:97:19:17:B6:29:AD:FF
                DirName:/C=US/ST=California/L=San Francisco/O=ASF/OU=httpd-test/CN=localhost
                serial:00

    Signature Algorithm: md5WithRSAEncryption
        1d:95:93:32:73:ed:5d:f5:eb:a6:c5:61:b1:a8:49:e3:95:d4:
        00:af:cf:f1:4a:16:f6:9a:dc:56:88:70:5c:f0:77:52:af:f9:
        aa:e4:e6:ea:e4:b9:a8:11:39:96:10:5d:9f:c5:3f:a3:a2:0b:
        39:15:7f:ef:ca:2d:15:35:27:42:0a:f9:d6:7c:30:af:b6:c4:
        8e:83:28:e0:b4:43:79:1f:a6:3e:d4:f1:dd:9c:10:94:fc:cc:
        9b:f9:37:3a:61:88:18:2a:9f:7b:40:94:f6:b2:96:a3:3a:52:
        8a:7f:cc:e4:4f:25:26:d6:9f:6a:c6:78:b1:6e:b3:db:59:9b:
        8d:47
-----BEGIN CERTIFICATE-----
MIIDUjCCArugAwIBAgIBAjANBgkqhkiG9w0BAQQFADBxMQswCQYDVQQGEwJVUzET
MBEGA1UECBMKQ2FsaWZvcm5pYTEWMBQGA1UEBxMNU2FuIEZyYW5jaXNjbzEMMAoG
A1UEChMDQVNGMRMwEQYDVQQLEwpodHRwZC10ZXN0MRIwEAYDVQQDEwlsb2NhbGhv
c3QwHhcNMDEwODEzMDIwNTA5WhcNMDIwODEzMDIwNTA5WjBxMQswCQYDVQQGEwJV
UzETMBEGA1UECBMKQ2FsaWZvcm5pYTEWMBQGA1UEBxMNU2FuIEZyYW5jaXNjbzEM
MAoGA1UEChMDQVNGMRMwEQYDVQQLEwpodHRwZC10ZXN0MRIwEAYDVQQDFAljbGll
bnRfb2swgZ8wDQYJKoZIhvcNAQEBBQADgY0AMIGJAoGBALipgf9ms4N+llymZCzV
7B2f7BP82tGbtaxC9/hiMgacOw3fzmDDXmTpIyqHNeLWdo5EnCQffCANc3hH7fed
uZFxc3rT88frauPCJMU/YGU3r8g7UkwjR1gXHaHiM0ouMpbSsUYRtt7JCdJdG2GN
kzNP52yuf0UFw6ZfU39/YFnRAgMBAAGjgfkwgfYwCQYDVR0TBAIwADAsBglghkgB
hvhCAQ0EHxYdT3BlblNTTCBHZW5lcmF0ZWQgQ2VydGlmaWNhdGUwHQYDVR0OBBYE
FLOHw8u249rbRd2Pf0kOcmXCP4MVMIGbBgNVHSMEgZMwgZCAFGqMMDq4APMjGV0y
+3WXGRe2Ka3/oXWkczBxMQswCQYDVQQGEwJVUzETMBEGA1UECBMKQ2FsaWZvcm5p
YTEWMBQGA1UEBxMNU2FuIEZyYW5jaXNjbzEMMAoGA1UEChMDQVNGMRMwEQYDVQQL
EwpodHRwZC10ZXN0MRIwEAYDVQQDEwlsb2NhbGhvc3SCAQAwDQYJKoZIhvcNAQEE
BQADgYEAHZWTMnPtXfXrpsVhsahJ45XUAK/P8UoW9prcVohwXPB3Uq/5quTm6uS5
qBE5lhBdn8U/o6ILORV/78otFTUnQgr51nwwr7bEjoMo4LRDeR+mPtTx3ZwQlPzM
m/k3OmGIGCqfe0CU9rKWozpSin/M5E8lJtafasZ4sW6z21mbjUc=
-----END CERTIFICATE-----
