Certificate:
    Data:
        Version: 3 (0x2)
        Serial Number: 4 (0x4)
        Signature Algorithm: md5WithRSAEncryption
        Issuer: C=US, ST=California, L=San Francisco, O=ASF, OU=httpd-test, CN=localhost
        Validity
            Not Before: Aug 17 03:16:42 2001 GMT
            Not After : Aug 17 03:16:42 2002 GMT
        Subject: C=AU, ST=Queensland, L=Mackay, O=Snake Oil, Ltd., OU=Staff, CN=localhost
        Subject Public Key Info:
            Public Key Algorithm: rsaEncryption
            RSA Public Key: (1024 bit)
                Modulus (1024 bit):
                    00:9e:9b:95:8b:9d:f5:60:50:56:93:d4:b1:5b:50:
                    a4:44:a7:84:95:b0:0f:36:5a:ab:b3:59:be:fc:9f:
                    82:fd:03:24:07:27:8d:8b:7d:d7:9a:4e:01:b4:11:
                    5d:7b:67:e7:0f:fb:37:da:17:ef:02:6a:a4:c8:31:
                    84:b8:51:c7:f8:89:bb:2c:6f:07:41:ef:a3:0d:42:
                    56:7f:23:b5:12:a9:78:57:ba:44:06:07:6d:56:36:
                    5c:cc:5c:0e:6c:6c:35:b2:11:a4:e1:54:7e:ab:fe:
                    23:ed:31:9e:59:ea:e2:d0:55:38:6b:80:97:6d:48:
                    d9:cc:93:95:9e:35:11:76:9f
                Exponent: 65537 (0x10001)
        X509v3 extensions:
            X509v3 Basic Constraints: 
                CA:FALSE
            Netscape Comment: 
                OpenSSL Generated Certificate
            X509v3 Subject Key Identifier: 
                6E:D9:6E:27:36:0C:0B:2C:57:6A:45:51:A5:50:BB:1A:0C:EC:30:15
            X509v3 Authority Key Identifier: 
                keyid:6A:8C:30:3A:B8:00:F3:23:19:5D:32:FB:75:97:19:17:B6:29:AD:FF
                DirName:/C=US/ST=California/L=San Francisco/O=ASF/OU=httpd-test/CN=localhost
                serial:00

    Signature Algorithm: md5WithRSAEncryption
        a8:e2:e2:ec:f7:ca:44:7f:20:07:7a:13:c4:f7:b5:c1:e8:9f:
        b7:9f:92:37:73:ff:ee:e5:51:27:7f:f8:42:ee:f2:d8:66:ad:
        6d:49:8c:f5:62:96:34:97:a8:95:05:cc:18:37:bc:4e:08:c1:
        d4:f8:2e:6e:10:2b:72:7d:6f:bc:1d:12:5d:07:3b:22:bd:83:
        34:a8:b3:6d:82:e8:e1:55:50:89:93:da:9f:3b:05:ac:2f:44:
        48:5f:67:3a:d4:1a:8d:fc:c7:29:a7:f5:20:53:29:1a:be:75:
        f6:f0:9a:7f:d3:e2:72:91:0b:f3:76:e9:cd:ee:fd:a2:71:15:
        20:aa
-----BEGIN CERTIFICATE-----
MIIDUjCCArugAwIBAgIBBDANBgkqhkiG9w0BAQQFADBxMQswCQYDVQQGEwJVUzET
MBEGA1UECBMKQ2FsaWZvcm5pYTEWMBQGA1UEBxMNU2FuIEZyYW5jaXNjbzEMMAoG
A1UEChMDQVNGMRMwEQYDVQQLEwpodHRwZC10ZXN0MRIwEAYDVQQDEwlsb2NhbGhv
c3QwHhcNMDEwODE3MDMxNjQyWhcNMDIwODE3MDMxNjQyWjBxMQswCQYDVQQGEwJB
VTETMBEGA1UECBMKUXVlZW5zbGFuZDEPMA0GA1UEBxMGTWFja2F5MRgwFgYDVQQK
Ew9TbmFrZSBPaWwsIEx0ZC4xDjAMBgNVBAsTBVN0YWZmMRIwEAYDVQQDEwlsb2Nh
bGhvc3QwgZ8wDQYJKoZIhvcNAQEBBQADgY0AMIGJAoGBAJ6blYud9WBQVpPUsVtQ
pESnhJWwDzZaq7NZvvyfgv0DJAcnjYt915pOAbQRXXtn5w/7N9oX7wJqpMgxhLhR
x/iJuyxvB0Hvow1CVn8jtRKpeFe6RAYHbVY2XMxcDmxsNbIRpOFUfqv+I+0xnlnq
4tBVOGuAl21I2cyTlZ41EXafAgMBAAGjgfkwgfYwCQYDVR0TBAIwADAsBglghkgB
hvhCAQ0EHxYdT3BlblNTTCBHZW5lcmF0ZWQgQ2VydGlmaWNhdGUwHQYDVR0OBBYE
FG7Zbic2DAssV2pFUaVQuxoM7DAVMIGbBgNVHSMEgZMwgZCAFGqMMDq4APMjGV0y
+3WXGRe2Ka3/oXWkczBxMQswCQYDVQQGEwJVUzETMBEGA1UECBMKQ2FsaWZvcm5p
YTEWMBQGA1UEBxMNU2FuIEZyYW5jaXNjbzEMMAoGA1UEChMDQVNGMRMwEQYDVQQL
EwpodHRwZC10ZXN0MRIwEAYDVQQDEwlsb2NhbGhvc3SCAQAwDQYJKoZIhvcNAQEE
BQADgYEAqOLi7PfKRH8gB3oTxPe1weift5+SN3P/7uVRJ3/4Qu7y2GatbUmM9WKW
NJeolQXMGDe8TgjB1PgubhArcn1vvB0SXQc7Ir2DNKizbYLo4VVQiZPanzsFrC9E
SF9nOtQajfzHKaf1IFMpGr519vCaf9PicpEL83bpze79onEVIKo=
-----END CERTIFICATE-----
